target datalayout = "e-m:e-p270:32:32-p271:32:32-p272:64:64-i64:64-i128:128-f80:128-n8:16:32:64-S128"
target triple = "x86_64-pc-linux-gnu"

%struct.ec_method_st = type { i32, i32, ptr, ptr, ptr, ptr, ptr, ptr, ptr, ptr, ptr, ptr, ptr, ptr, ptr, ptr, ptr, ptr, ptr, ptr, ptr, ptr, ptr, ptr, ptr, ptr, ptr, ptr, ptr, ptr, ptr, ptr, ptr, ptr, ptr, ptr, ptr, ptr, ptr, ptr, ptr, ptr, ptr, ptr, ptr, ptr, ptr, ptr, ptr, ptr, ptr, ptr, ptr, ptr, ptr, ptr, ptr }
%struct.ec_group_st = type { ptr, ptr, ptr, ptr, i32, i32, i32, i32, ptr, i64, ptr, [6 x i32], ptr, ptr, i32, ptr, ptr, ptr, ptr, i32, %union.anon, ptr, ptr }
%union.anon = type { ptr }

@.str = private unnamed_addr constant [32 x i8] c"../openssl/crypto/ec/ecp_smpl.c\00", align 1
@__func__.ossl_ec_GFp_simple_field_inv = private unnamed_addr constant [29 x i8] c"ossl_ec_GFp_simple_field_inv\00", align 1

; Function Attrs: nounwind uwtable
define i32 @ossl_ec_GFp_simple_field_inv(ptr noundef %0, ptr noundef %1, ptr noundef %2, ptr noundef %3) #0 {
  %5 = alloca i32, align 4
  %6 = alloca ptr, align 8
  %7 = alloca ptr, align 8
  %8 = alloca ptr, align 8
  %9 = alloca ptr, align 8
  %10 = alloca ptr, align 8
  %11 = alloca ptr, align 8
  %12 = alloca i32, align 4
  %13 = alloca i32, align 4
  store ptr %0, ptr %6, align 8, !tbaa !3
  store ptr %1, ptr %7, align 8, !tbaa !21
  store ptr %2, ptr %8, align 8, !tbaa !21
  store ptr %3, ptr %9, align 8, !tbaa !22
  call void @llvm.lifetime.start.p0(i64 8, ptr %10) #3
  store ptr null, ptr %10, align 8, !tbaa !21
  call void @llvm.lifetime.start.p0(i64 8, ptr %11) #3
  store ptr null, ptr %11, align 8, !tbaa !22
  call void @llvm.lifetime.start.p0(i64 4, ptr %12) #3
  store i32 0, ptr %12, align 4, !tbaa !24
  %14 = load ptr, ptr %9, align 8, !tbaa !22
  %15 = icmp eq ptr %14, null
  br i1 %15, label %16, label %23

16:                                               ; preds = %4
  %17 = load ptr, ptr %6, align 8, !tbaa !3
  %18 = getelementptr inbounds nuw %struct.ec_group_st, ptr %17, i32 0, i32 21
  %19 = load ptr, ptr %18, align 8, !tbaa !25
  %20 = call ptr @BN_CTX_secure_new_ex(ptr noundef %19)
  store ptr %20, ptr %11, align 8, !tbaa !22
  store ptr %20, ptr %9, align 8, !tbaa !22
  %21 = icmp eq ptr %20, null
  br i1 %21, label %22, label %23

22:                                               ; preds = %16
  store i32 0, ptr %5, align 4
  store i32 1, ptr %13, align 4
  br label %87

23:                                               ; preds = %16, %4
  %24 = load ptr, ptr %9, align 8, !tbaa !22
  call void @BN_CTX_start(ptr noundef %24)
  %25 = load ptr, ptr %9, align 8, !tbaa !22
  %26 = call ptr @BN_CTX_get(ptr noundef %25)
  store ptr %26, ptr %10, align 8, !tbaa !21
  %27 = icmp eq ptr %26, null
  br i1 %27, label %28, label %29

28:                                               ; preds = %23
  br label %83

29:                                               ; preds = %23
  br label %30

30:                                               ; preds = %40, %29
  %31 = load ptr, ptr %10, align 8, !tbaa !21
  %32 = load ptr, ptr %6, align 8, !tbaa !3
  %33 = getelementptr inbounds nuw %struct.ec_group_st, ptr %32, i32 0, i32 10
  %34 = load ptr, ptr %33, align 8, !tbaa !8
  %35 = load ptr, ptr %9, align 8, !tbaa !22
  %36 = call i32 @BN_priv_rand_range_ex(ptr noundef %31, ptr noundef %34, i32 noundef 0, ptr noundef %35)
  %37 = icmp ne i32 %36, 0
  br i1 %37, label %39, label %38

38:                                               ; preds = %30
  br label %83

39:                                               ; preds = %30
  br label %40

40:                                               ; preds = %39
  %41 = load ptr, ptr %10, align 8, !tbaa !21
  %42 = call i32 @BN_is_zero(ptr noundef %41)
  %43 = icmp ne i32 %42, 0
  br i1 %43, label %30, label %44, !llvm.loop !53

44:                                               ; preds = %40
  %45 = load ptr, ptr %6, align 8, !tbaa !3
  %46 = getelementptr inbounds nuw %struct.ec_group_st, ptr %45, i32 0, i32 0
  %47 = load ptr, ptr %46, align 8, !tbaa !26
  %48 = getelementptr inbounds nuw %struct.ec_method_st, ptr %47, i32 0, i32 32
  %49 = load ptr, ptr %48, align 8, !tbaa !39
  %50 = load ptr, ptr %6, align 8, !tbaa !3
  %51 = load ptr, ptr %7, align 8, !tbaa !21
  %52 = load ptr, ptr %8, align 8, !tbaa !21
  %53 = load ptr, ptr %10, align 8, !tbaa !21
  %54 = load ptr, ptr %9, align 8, !tbaa !22
  %55 = call i32 %49(ptr noundef %50, ptr noundef %51, ptr noundef %52, ptr noundef %53, ptr noundef %54)
  %56 = icmp ne i32 %55, 0
  br i1 %56, label %58, label %57

57:                                               ; preds = %44
  br label %83

58:                                               ; preds = %44
  %59 = load ptr, ptr %7, align 8, !tbaa !21
  %60 = load ptr, ptr %7, align 8, !tbaa !21
  %61 = load ptr, ptr %6, align 8, !tbaa !3
  %62 = getelementptr inbounds nuw %struct.ec_group_st, ptr %61, i32 0, i32 10
  %63 = load ptr, ptr %62, align 8, !tbaa !8
  %64 = load ptr, ptr %9, align 8, !tbaa !22
  %65 = call ptr @BN_mod_inverse(ptr noundef %59, ptr noundef %60, ptr noundef %63, ptr noundef %64)
  %66 = icmp ne ptr %65, null
  br i1 %66, label %68, label %67

67:                                               ; preds = %58
  call void @ERR_new()
  call void @ERR_set_debug(ptr noundef @.str, i32 noundef 1408, ptr noundef @__func__.ossl_ec_GFp_simple_field_inv)
  call void (i32, i32, ptr, ...) @ERR_set_error(i32 noundef 16, i32 noundef 165, ptr noundef null)
  br label %83

68:                                               ; preds = %58
  %69 = load ptr, ptr %6, align 8, !tbaa !3
  %70 = getelementptr inbounds nuw %struct.ec_group_st, ptr %69, i32 0, i32 0
  %71 = load ptr, ptr %70, align 8, !tbaa !26
  %72 = getelementptr inbounds nuw %struct.ec_method_st, ptr %71, i32 0, i32 32
  %73 = load ptr, ptr %72, align 8, !tbaa !39
  %74 = load ptr, ptr %6, align 8, !tbaa !3
  %75 = load ptr, ptr %7, align 8, !tbaa !21
  %76 = load ptr, ptr %7, align 8, !tbaa !21
  %77 = load ptr, ptr %10, align 8, !tbaa !21
  %78 = load ptr, ptr %9, align 8, !tbaa !22
  %79 = call i32 %73(ptr noundef %74, ptr noundef %75, ptr noundef %76, ptr noundef %77, ptr noundef %78)
  %80 = icmp ne i32 %79, 0
  br i1 %80, label %82, label %81

81:                                               ; preds = %68
  br label %83

82:                                               ; preds = %68
  store i32 1, ptr %12, align 4, !tbaa !24
  br label %83

83:                                               ; preds = %82, %81, %67, %57, %38, %28
  %84 = load ptr, ptr %9, align 8, !tbaa !22
  call void @BN_CTX_end(ptr noundef %84)
  %85 = load ptr, ptr %11, align 8, !tbaa !22
  call void @BN_CTX_free(ptr noundef %85)
  %86 = load i32, ptr %12, align 4, !tbaa !24
  store i32 %86, ptr %5, align 4
  store i32 1, ptr %13, align 4
  br label %87

87:                                               ; preds = %83, %22
  call void @llvm.lifetime.end.p0(i64 4, ptr %12) #3
  call void @llvm.lifetime.end.p0(i64 8, ptr %11) #3
  call void @llvm.lifetime.end.p0(i64 8, ptr %10) #3
  %88 = load i32, ptr %5, align 4
  ret i32 %88
}