; Function Attrs: nounwind uwtable
define range(i32 0, 2) i32 @ossl_ec_GFp_simple_field_inv(ptr noundef %0, ptr noundef %1, ptr noundef %2, ptr noundef %3) #1 {
  %5 = icmp eq ptr %3, null
  br i1 %5, label %6, label %11

6:                                                ; preds = %4
  %7 = getelementptr inbounds nuw i8, ptr %0, i64 168
  %8 = load ptr, ptr %7, align 8, !tbaa !19
  %9 = tail call ptr @BN_CTX_secure_new_ex(ptr noundef %8) #4
  %10 = icmp eq ptr %9, null
  br i1 %10, label %34, label %11

11:                                               ; preds = %6, %4
  %.028 = phi ptr [ %9, %6 ], [ %3, %4 ]
  %.027 = phi ptr [ %9, %6 ], [ null, %4 ]
  tail call void @BN_CTX_start(ptr noundef nonnull %.028) #4
  %12 = tail call ptr @BN_CTX_get(ptr noundef nonnull %.028) #4
  %13 = icmp eq ptr %12, null
  br i1 %13, label %.loopexit, label %.preheader

.preheader:                                       ; preds = %11
  %14 = getelementptr inbounds nuw i8, ptr %0, i64 64
  br label %15

15:                                               ; preds = %.preheader, %18
  %16 = load ptr, ptr %14, align 8, !tbaa !3
  %17 = tail call i32 @BN_priv_rand_range_ex(ptr noundef nonnull %12, ptr noundef %16, i32 noundef 0, ptr noundef nonnull %.028) #4
  %.not = icmp eq i32 %17, 0
  br i1 %.not, label %.loopexit, label %18

18:                                               ; preds = %15
  %19 = tail call i32 @BN_is_zero(ptr noundef nonnull %12) #4
  %.not32 = icmp eq i32 %19, 0
  br i1 %.not32, label %20, label %15, !llvm.loop !42

20:                                               ; preds = %18
  %21 = load ptr, ptr %0, align 8, !tbaa !20
  %22 = getelementptr inbounds nuw i8, ptr %21, i64 248
  %23 = load ptr, ptr %22, align 8, !tbaa !32
  %24 = tail call i32 %23(ptr noundef nonnull %0, ptr noundef %1, ptr noundef %2, ptr noundef nonnull %12, ptr noundef nonnull %.028) #4
  %.not33 = icmp eq i32 %24, 0
  br i1 %.not33, label %.loopexit, label %25

25:                                               ; preds = %20
  %26 = load ptr, ptr %14, align 8, !tbaa !3
  %27 = tail call ptr @BN_mod_inverse(ptr noundef %1, ptr noundef %1, ptr noundef %26, ptr noundef nonnull %.028) #4
  %.not34 = icmp eq ptr %27, null
  br i1 %.not34, label %28, label %29

28:                                               ; preds = %25
  tail call void @ERR_new() #4
  tail call void @ERR_set_debug(ptr noundef nonnull @.str, i32 noundef 1408, ptr noundef nonnull @__func__.ossl_ec_GFp_simple_field_inv) #4
  tail call void (i32, i32, ptr, ...) @ERR_set_error(i32 noundef 16, i32 noundef 165, ptr noundef null) #4
  br label %.loopexit

29:                                               ; preds = %25
  %30 = load ptr, ptr %0, align 8, !tbaa !20
  %31 = getelementptr inbounds nuw i8, ptr %30, i64 248
  %32 = load ptr, ptr %31, align 8, !tbaa !32
  %33 = tail call i32 %32(ptr noundef nonnull %0, ptr noundef %1, ptr noundef %1, ptr noundef nonnull %12, ptr noundef nonnull %.028) #4
  %.not35 = icmp ne i32 %33, 0
  %spec.select = zext i1 %.not35 to i32
  br label %.loopexit

.loopexit:                                        ; preds = %15, %29, %20, %11, %28
  %.0 = phi i32 [ 0, %11 ], [ 0, %28 ], [ 0, %20 ], [ %spec.select, %29 ], [ 0, %15 ]
  tail call void @BN_CTX_end(ptr noundef nonnull %.028) #4
  tail call void @BN_CTX_free(ptr noundef %.027) #4
  br label %34

34:                                               ; preds = %6, %.loopexit
  %.029 = phi i32 [ %.0, %.loopexit ], [ 0, %6 ]
  ret i32 %.029
}